; Function Attrs: null_pointer_is_valid sspstrong uwtable
define internal i32 @dissect_fr_uncompressed(ptr noundef %0, ptr noundef %1, ptr noundef %2, ptr readnone captures(none) %3) #0 {
  %5 = getelementptr inbounds nuw i8, ptr %1, i64 8
  %6 = load ptr, ptr %5, align 8
  tail call void @col_set_str(ptr noundef %6, i32 noundef 35, ptr noundef nonnull @.str.87)
  %7 = load ptr, ptr %5, align 8
  tail call void @col_clear(ptr noundef %7, i32 noundef 25)
  %8 = load i32, ptr @proto_fr, align 4
  %9 = tail call ptr (ptr, i32, ptr, i32, i32, ptr, ...) @proto_tree_add_protocol_format(ptr noundef %2, i32 noundef %8, ptr noundef %0, i32 noundef 0, i32 noundef -1, ptr noundef nonnull @.str.86)
  %10 = load i32, ptr @ett_fr, align 4
  %11 = tail call ptr @proto_item_add_subtree(ptr noundef %9, i32 noundef %10)
  tail call fastcc void @dissect_fr_nlpid(ptr noundef %0, i32 noundef 0, ptr noundef %1, ptr noundef %2, ptr noundef %9, ptr noundef %11, i8 noundef zeroext 3)
  %12 = tail call i32 @tvb_captured_length(ptr noundef %0)
  ret i32 %12
}